target datalayout = "e-m:e-p270:32:32-p271:32:32-p272:64:64-i64:64-i128:128-f80:128-n8:16:32:64-S128"
target triple = "x86_64-pc-linux-gnu"

%struct.rb_code_location_struct = type { %struct.rb_code_position_struct, %struct.rb_code_position_struct }
%struct.rb_code_position_struct = type { i32, i32 }
%struct.RNode = type { i64, %struct.rb_code_location_struct, i32 }
%struct.RNode_BACK_REF = type { %struct.RNode, i64 }
%struct.RNode_NTH_REF = type { %struct.RNode, i64 }

@.str.897 = private unnamed_addr constant [24 x i8] c"Can't set variable $%ld\00", align 1
@.str.898 = private unnamed_addr constant [23 x i8] c"Can't set variable $%c\00", align 1

; Function Attrs: nounwind sspstrong uwtable
define internal i64 @rb_backref_error(ptr noundef %0, ptr noundef %1) #0 {
  %3 = alloca i64, align 8
  %4 = alloca ptr, align 8
  %5 = alloca ptr, align 8
  store ptr %0, ptr %4, align 8, !tbaa !7
  store ptr %1, ptr %5, align 8, !tbaa !65
  %6 = load ptr, ptr %5, align 8, !tbaa !65
  %7 = getelementptr inbounds nuw %struct.RNode, ptr %6, i32 0, i32 0
  %8 = load i64, ptr %7, align 8, !tbaa !110
  %9 = and i64 %8, 32512
  %10 = lshr i64 %9, 8
  %11 = trunc i64 %10 to i32
  switch i32 %11, label %23 [
    i32 54, label %12
    i32 55, label %17
  ]

12:                                               ; preds = %2
  %13 = load ptr, ptr %4, align 8, !tbaa !7
  %14 = load ptr, ptr %5, align 8, !tbaa !65
  %15 = getelementptr inbounds nuw %struct.RNode_NTH_REF, ptr %14, i32 0, i32 1
  %16 = load i64, ptr %15, align 8, !tbaa !256
  call void (ptr, ptr, ptr, ...) @parser_compile_error(ptr noundef %13, ptr noundef null, ptr noundef @.str.897, i64 noundef %16)
  store i64 20, ptr %3, align 8
  br label %24

17:                                               ; preds = %2
  %18 = load ptr, ptr %4, align 8, !tbaa !7
  %19 = load ptr, ptr %5, align 8, !tbaa !65
  %20 = getelementptr inbounds nuw %struct.RNode_BACK_REF, ptr %19, i32 0, i32 1
  %21 = load i64, ptr %20, align 8, !tbaa !77
  %22 = trunc i64 %21 to i32
  call void (ptr, ptr, ptr, ...) @parser_compile_error(ptr noundef %18, ptr noundef null, ptr noundef @.str.898, i32 noundef %22)
  store i64 20, ptr %3, align 8
  br label %24

23:                                               ; preds = %2
  unreachable

24:                                               ; preds = %17, %12
  %25 = load i64, ptr %3, align 8
  ret i64 %25
}