; Function Attrs: nounwind sspstrong uwtable
define internal fastcc void @rb_backref_error(ptr noundef captures(none) %0, ptr noundef readonly captures(none) %1) unnamed_addr #0 {
  %3 = load i64, ptr %1, align 8, !tbaa !72
  %4 = and i64 %3, 32512
  %switch = icmp eq i64 %4, 13824
  %5 = getelementptr inbounds nuw i8, ptr %1, i64 32
  %6 = load i64, ptr %5, align 8, !tbaa !7
  br i1 %switch, label %7, label %8

7:                                                ; preds = %2
  tail call void (ptr, ptr, ptr, ...) @parser_compile_error(ptr noundef %0, ptr noundef null, ptr noundef nonnull @.str.897, i64 noundef %6)
  br label %10

8:                                                ; preds = %2
  %9 = trunc i64 %6 to i32
  tail call void (ptr, ptr, ptr, ...) @parser_compile_error(ptr noundef %0, ptr noundef null, ptr noundef nonnull @.str.898, i32 noundef %9)
  br label %10

10:                                               ; preds = %8, %7
  ret void
}